target datalayout = "e-m:e-p270:32:32-p271:32:32-p272:64:64-i64:64-i128:128-f80:128-n8:16:32:64-S128"
target triple = "x86_64-pc-linux-gnu"

%struct.BlockRefTableBuffer = type { ptr, ptr, [65536 x i8], i32, i32, i32 }
%struct.BlockRefTableReader = type { %struct.BlockRefTableBuffer, ptr, ptr, ptr, i32, i32, ptr, [4096 x i16], i32 }

@pg_comp_crc32c = external global ptr, align 8
@.str.5 = private unnamed_addr constant [28 x i8] c"file \22%s\22 ends unexpectedly\00", align 1

; Function Attrs: nounwind uwtable
define internal void @BlockRefTableRead(ptr noundef %0, ptr noundef %1, i32 noundef %2) #0 {
  %4 = alloca ptr, align 8
  %5 = alloca ptr, align 8
  %6 = alloca i32, align 4
  %7 = alloca ptr, align 8
  %8 = alloca i32, align 4
  %9 = alloca i32, align 4
  store ptr %0, ptr %4, align 8
  store ptr %1, ptr %5, align 8
  store i32 %2, ptr %6, align 4
  call void @llvm.lifetime.start.p0(i64 8, ptr %7) #10
  %10 = load ptr, ptr %4, align 8
  %11 = getelementptr inbounds nuw %struct.BlockRefTableReader, ptr %10, i32 0, i32 0
  store ptr %11, ptr %7, align 8
  br label %12

12:                                               ; preds = %157, %3
  %13 = load i32, ptr %6, align 4
  %14 = icmp sgt i32 %13, 0
  br i1 %14, label %15, label %158

15:                                               ; preds = %12
  %16 = load ptr, ptr %7, align 8
  %17 = getelementptr inbounds nuw %struct.BlockRefTableBuffer, ptr %16, i32 0, i32 4
  %18 = load i32, ptr %17, align 4
  %19 = load ptr, ptr %7, align 8
  %20 = getelementptr inbounds nuw %struct.BlockRefTableBuffer, ptr %19, i32 0, i32 3
  %21 = load i32, ptr %20, align 8
  %22 = icmp slt i32 %18, %21
  br i1 %22, label %23, label %83

23:                                               ; preds = %15
  call void @llvm.lifetime.start.p0(i64 4, ptr %8) #10
  %24 = load i32, ptr %6, align 4
  %25 = load ptr, ptr %7, align 8
  %26 = getelementptr inbounds nuw %struct.BlockRefTableBuffer, ptr %25, i32 0, i32 3
  %27 = load i32, ptr %26, align 8
  %28 = load ptr, ptr %7, align 8
  %29 = getelementptr inbounds nuw %struct.BlockRefTableBuffer, ptr %28, i32 0, i32 4
  %30 = load i32, ptr %29, align 4
  %31 = sub i32 %27, %30
  %32 = icmp slt i32 %24, %31
  br i1 %32, label %33, label %35

33:                                               ; preds = %23
  %34 = load i32, ptr %6, align 4
  br label %43

35:                                               ; preds = %23
  %36 = load ptr, ptr %7, align 8
  %37 = getelementptr inbounds nuw %struct.BlockRefTableBuffer, ptr %36, i32 0, i32 3
  %38 = load i32, ptr %37, align 8
  %39 = load ptr, ptr %7, align 8
  %40 = getelementptr inbounds nuw %struct.BlockRefTableBuffer, ptr %39, i32 0, i32 4
  %41 = load i32, ptr %40, align 4
  %42 = sub i32 %38, %41
  br label %43

43:                                               ; preds = %35, %33
  %44 = phi i32 [ %34, %33 ], [ %42, %35 ]
  store i32 %44, ptr %8, align 4
  %45 = load ptr, ptr %5, align 8
  %46 = load ptr, ptr %7, align 8
  %47 = getelementptr inbounds nuw %struct.BlockRefTableBuffer, ptr %46, i32 0, i32 2
  %48 = load ptr, ptr %7, align 8
  %49 = getelementptr inbounds nuw %struct.BlockRefTableBuffer, ptr %48, i32 0, i32 4
  %50 = load i32, ptr %49, align 4
  %51 = sext i32 %50 to i64
  %52 = getelementptr inbounds [65536 x i8], ptr %47, i64 0, i64 %51
  %53 = load i32, ptr %8, align 4
  %54 = sext i32 %53 to i64
  call void @llvm.memcpy.p0.p0.i64(ptr align 1 %45, ptr align 1 %52, i64 %54, i1 false)
  %55 = load ptr, ptr @pg_comp_crc32c, align 8
  %56 = load ptr, ptr %7, align 8
  %57 = getelementptr inbounds nuw %struct.BlockRefTableBuffer, ptr %56, i32 0, i32 5
  %58 = load i32, ptr %57, align 8
  %59 = load ptr, ptr %7, align 8
  %60 = getelementptr inbounds nuw %struct.BlockRefTableBuffer, ptr %59, i32 0, i32 2
  %61 = load ptr, ptr %7, align 8
  %62 = getelementptr inbounds nuw %struct.BlockRefTableBuffer, ptr %61, i32 0, i32 4
  %63 = load i32, ptr %62, align 4
  %64 = sext i32 %63 to i64
  %65 = getelementptr inbounds [65536 x i8], ptr %60, i64 0, i64 %64
  %66 = load i32, ptr %8, align 4
  %67 = sext i32 %66 to i64
  %68 = call i32 %55(i32 noundef %58, ptr noundef %65, i64 noundef %67)
  %69 = load ptr, ptr %7, align 8
  %70 = getelementptr inbounds nuw %struct.BlockRefTableBuffer, ptr %69, i32 0, i32 5
  store i32 %68, ptr %70, align 8
  %71 = load i32, ptr %8, align 4
  %72 = load ptr, ptr %7, align 8
  %73 = getelementptr inbounds nuw %struct.BlockRefTableBuffer, ptr %72, i32 0, i32 4
  %74 = load i32, ptr %73, align 4
  %75 = add i32 %74, %71
  store i32 %75, ptr %73, align 4
  %76 = load ptr, ptr %5, align 8
  %77 = load i32, ptr %8, align 4
  %78 = sext i32 %77 to i64
  %79 = getelementptr inbounds i8, ptr %76, i64 %78
  store ptr %79, ptr %5, align 8
  %80 = load i32, ptr %8, align 4
  %81 = load i32, ptr %6, align 4
  %82 = sub i32 %81, %80
  store i32 %82, ptr %6, align 4
  call void @llvm.lifetime.end.p0(i64 4, ptr %8) #10
  br label %157

83:                                               ; preds = %15
  %84 = load i32, ptr %6, align 4
  %85 = icmp sge i32 %84, 65536
  br i1 %85, label %86, label %126

86:                                               ; preds = %83
  call void @llvm.lifetime.start.p0(i64 4, ptr %9) #10
  %87 = load ptr, ptr %7, align 8
  %88 = getelementptr inbounds nuw %struct.BlockRefTableBuffer, ptr %87, i32 0, i32 0
  %89 = load ptr, ptr %88, align 8
  %90 = load ptr, ptr %7, align 8
  %91 = getelementptr inbounds nuw %struct.BlockRefTableBuffer, ptr %90, i32 0, i32 1
  %92 = load ptr, ptr %91, align 8
  %93 = load ptr, ptr %5, align 8
  %94 = load i32, ptr %6, align 4
  %95 = call i32 %89(ptr noundef %92, ptr noundef %93, i32 noundef %94)
  store i32 %95, ptr %9, align 4
  %96 = load ptr, ptr @pg_comp_crc32c, align 8
  %97 = load ptr, ptr %7, align 8
  %98 = getelementptr inbounds nuw %struct.BlockRefTableBuffer, ptr %97, i32 0, i32 5
  %99 = load i32, ptr %98, align 8
  %100 = load ptr, ptr %5, align 8
  %101 = load i32, ptr %9, align 4
  %102 = sext i32 %101 to i64
  %103 = call i32 %96(i32 noundef %99, ptr noundef %100, i64 noundef %102)
  %104 = load ptr, ptr %7, align 8
  %105 = getelementptr inbounds nuw %struct.BlockRefTableBuffer, ptr %104, i32 0, i32 5
  store i32 %103, ptr %105, align 8
  %106 = load ptr, ptr %5, align 8
  %107 = load i32, ptr %9, align 4
  %108 = sext i32 %107 to i64
  %109 = getelementptr inbounds i8, ptr %106, i64 %108
  store ptr %109, ptr %5, align 8
  %110 = load i32, ptr %9, align 4
  %111 = load i32, ptr %6, align 4
  %112 = sub i32 %111, %110
  store i32 %112, ptr %6, align 4
  %113 = load i32, ptr %9, align 4
  %114 = icmp eq i32 %113, 0
  br i1 %114, label %115, label %125

115:                                              ; preds = %86
  %116 = load ptr, ptr %4, align 8
  %117 = getelementptr inbounds nuw %struct.BlockRefTableReader, ptr %116, i32 0, i32 2
  %118 = load ptr, ptr %117, align 8
  %119 = load ptr, ptr %4, align 8
  %120 = getelementptr inbounds nuw %struct.BlockRefTableReader, ptr %119, i32 0, i32 3
  %121 = load ptr, ptr %120, align 8
  %122 = load ptr, ptr %4, align 8
  %123 = getelementptr inbounds nuw %struct.BlockRefTableReader, ptr %122, i32 0, i32 1
  %124 = load ptr, ptr %123, align 8
  call void (ptr, ptr, ...) %118(ptr noundef %121, ptr noundef @.str.5, ptr noundef %124)
  br label %125

125:                                              ; preds = %115, %86
  call void @llvm.lifetime.end.p0(i64 4, ptr %9) #10
  br label %156

126:                                              ; preds = %83
  %127 = load ptr, ptr %7, align 8
  %128 = getelementptr inbounds nuw %struct.BlockRefTableBuffer, ptr %127, i32 0, i32 0
  %129 = load ptr, ptr %128, align 8
  %130 = load ptr, ptr %7, align 8
  %131 = getelementptr inbounds nuw %struct.BlockRefTableBuffer, ptr %130, i32 0, i32 1
  %132 = load ptr, ptr %131, align 8
  %133 = load ptr, ptr %7, align 8
  %134 = getelementptr inbounds nuw %struct.BlockRefTableBuffer, ptr %133, i32 0, i32 2
  %135 = getelementptr inbounds [65536 x i8], ptr %134, i64 0, i64 0
  %136 = call i32 %129(ptr noundef %132, ptr noundef %135, i32 noundef 65536)
  %137 = load ptr, ptr %7, align 8
  %138 = getelementptr inbounds nuw %struct.BlockRefTableBuffer, ptr %137, i32 0, i32 3
  store i32 %136, ptr %138, align 8
  %139 = load ptr, ptr %7, align 8
  %140 = getelementptr inbounds nuw %struct.BlockRefTableBuffer, ptr %139, i32 0, i32 4
  store i32 0, ptr %140, align 4
  %141 = load ptr, ptr %7, align 8
  %142 = getelementptr inbounds nuw %struct.BlockRefTableBuffer, ptr %141, i32 0, i32 3
  %143 = load i32, ptr %142, align 8
  %144 = icmp eq i32 %143, 0
  br i1 %144, label %145, label %155

145:                                              ; preds = %126
  %146 = load ptr, ptr %4, align 8
  %147 = getelementptr inbounds nuw %struct.BlockRefTableReader, ptr %146, i32 0, i32 2
  %148 = load ptr, ptr %147, align 8
  %149 = load ptr, ptr %4, align 8
  %150 = getelementptr inbounds nuw %struct.BlockRefTableReader, ptr %149, i32 0, i32 3
  %151 = load ptr, ptr %150, align 8
  %152 = load ptr, ptr %4, align 8
  %153 = getelementptr inbounds nuw %struct.BlockRefTableReader, ptr %152, i32 0, i32 1
  %154 = load ptr, ptr %153, align 8
  call void (ptr, ptr, ...) %148(ptr noundef %151, ptr noundef @.str.5, ptr noundef %154)
  br label %155

155:                                              ; preds = %145, %126
  br label %156

156:                                              ; preds = %155, %125
  br label %157

157:                                              ; preds = %156, %43
  br label %12, !llvm.loop !22

158:                                              ; preds = %12
  call void @llvm.lifetime.end.p0(i64 8, ptr %7) #10
  ret void
}