; Function Attrs: nounwind uwtable
define internal fastcc void @BlockRefTableRead(ptr noundef %0, ptr noundef %1, i32 noundef %2) unnamed_addr #0 {
  %4 = icmp sgt i32 %2, 0
  br i1 %4, label %.lr.ph, label %._crit_edge

.lr.ph:                                           ; preds = %3
  %5 = getelementptr inbounds nuw i8, ptr %0, i64 65556
  %6 = getelementptr inbounds nuw i8, ptr %0, i64 65552
  %7 = getelementptr inbounds nuw i8, ptr %0, i64 8
  %8 = getelementptr inbounds nuw i8, ptr %0, i64 16
  %9 = getelementptr inbounds nuw i8, ptr %0, i64 65576
  %10 = getelementptr inbounds nuw i8, ptr %0, i64 65584
  %11 = getelementptr inbounds nuw i8, ptr %0, i64 65568
  %12 = getelementptr inbounds nuw i8, ptr %0, i64 65560
  br label %13

13:                                               ; preds = %.lr.ph, %56
  %.056 = phi ptr [ %1, %.lr.ph ], [ %.1, %56 ]
  %.05055 = phi i32 [ %2, %.lr.ph ], [ %.151, %56 ]
  %14 = load i32, ptr %5, align 4
  %15 = load i32, ptr %6, align 8
  %16 = icmp slt i32 %14, %15
  br i1 %16, label %17, label %32

17:                                               ; preds = %13
  %18 = sub i32 %15, %14
  %.050. = tail call i32 @llvm.smin.i32(i32 %.05055, i32 %18)
  %19 = sext i32 %14 to i64
  %20 = getelementptr inbounds [65536 x i8], ptr %8, i64 0, i64 %19
  %21 = sext i32 %.050. to i64
  tail call void @llvm.memcpy.p0.p0.i64(ptr align 1 %.056, ptr nonnull align 1 %20, i64 %21, i1 false)
  %22 = load ptr, ptr @pg_comp_crc32c, align 8
  %23 = load i32, ptr %12, align 8
  %24 = load i32, ptr %5, align 4
  %25 = sext i32 %24 to i64
  %26 = getelementptr inbounds [65536 x i8], ptr %8, i64 0, i64 %25
  %27 = tail call i32 %22(i32 noundef %23, ptr noundef nonnull %26, i64 noundef %21) #14
  store i32 %27, ptr %12, align 8
  %28 = load i32, ptr %5, align 4
  %29 = add i32 %28, %.050.
  store i32 %29, ptr %5, align 4
  %30 = getelementptr inbounds i8, ptr %.056, i64 %21
  %31 = sub i32 %.05055, %.050.
  br label %56

32:                                               ; preds = %13
  %33 = icmp samesign ugt i32 %.05055, 65535
  %34 = load ptr, ptr %0, align 8
  %35 = load ptr, ptr %7, align 8
  br i1 %33, label %36, label %49

36:                                               ; preds = %32
  %37 = tail call i32 %34(ptr noundef %35, ptr noundef %.056, i32 noundef %.05055) #14
  %38 = load ptr, ptr @pg_comp_crc32c, align 8
  %39 = load i32, ptr %12, align 8
  %40 = sext i32 %37 to i64
  %41 = tail call i32 %38(i32 noundef %39, ptr noundef %.056, i64 noundef %40) #14
  store i32 %41, ptr %12, align 8
  %42 = getelementptr inbounds i8, ptr %.056, i64 %40
  %43 = sub i32 %.05055, %37
  %44 = icmp eq i32 %37, 0
  br i1 %44, label %45, label %56

45:                                               ; preds = %36
  %46 = load ptr, ptr %9, align 8
  %47 = load ptr, ptr %10, align 8
  %48 = load ptr, ptr %11, align 8
  tail call void (ptr, ptr, ...) %46(ptr noundef %47, ptr noundef nonnull @.str.5, ptr noundef %48) #14
  br label %56

49:                                               ; preds = %32
  %50 = tail call i32 %34(ptr noundef %35, ptr noundef nonnull %8, i32 noundef 65536) #14
  store i32 %50, ptr %6, align 8
  store i32 0, ptr %5, align 4
  %51 = icmp eq i32 %50, 0
  br i1 %51, label %52, label %56

52:                                               ; preds = %49
  %53 = load ptr, ptr %9, align 8
  %54 = load ptr, ptr %10, align 8
  %55 = load ptr, ptr %11, align 8
  tail call void (ptr, ptr, ...) %53(ptr noundef %54, ptr noundef nonnull @.str.5, ptr noundef %55) #14
  br label %56

56:                                               ; preds = %36, %45, %52, %49, %17
  %.151 = phi i32 [ %31, %17 ], [ %.05055, %52 ], [ %.05055, %49 ], [ %43, %45 ], [ %43, %36 ]
  %.1 = phi ptr [ %30, %17 ], [ %.056, %52 ], [ %.056, %49 ], [ %42, %45 ], [ %42, %36 ]
  %57 = icmp sgt i32 %.151, 0
  br i1 %57, label %13, label %._crit_edge, !llvm.loop !24

._crit_edge:                                      ; preds = %56, %3
  ret void
}